#include <math.h>
#include <stdio.h>
#include <stdlib.h>
#include <string.h>

int main()
{
    char a[100],b[100],t;
    scanf("%s %s",a,b);
    int i,j,la=strlen(a),lb=strlen(b);
    if(la!=lb)printf("NO");
    else{
    	for(i=0;i<la;i++)
        	for(j=0;j<la;j++){
				if(a[i]>a[j]){t=a[i];a[i]=a[j];a[j]=t;}
            	if(b[i]>b[j]){t=b[i];b[i]=b[j];b[j]=t;}
        	}
    if(strcmp(a,b))printf("NO");
    else printf("YES");
	}
	return 0;
}